; ModuleID = '44/1397.c'
source_filename = "44/1397.c"
target datalayout = "e-m:e-p270:32:32-p271:32:32-p272:64:64-i64:64-f80:128-n8:16:32:64-S128"
target triple = "x86_64-pc-linux-gnu"

@.str = private unnamed_addr constant [3 x i8] c"%d\00", align 1
@.str.1 = private unnamed_addr constant [4 x i8] c"%d\0A\00", align 1

; Function Attrs: noinline nounwind uwtable
define dso_local i32 @main() #0 {
  %1 = alloca i32, align 4
  %2 = alloca [6 x i32], align 16
  %3 = alloca i32, align 4
  store i32 0, i32* %1, align 4
  store i32 0, i32* %3, align 4
  br label %4

4:                                                ; preds = %12, %0
  %5 = load i32, i32* %3, align 4
  %6 = icmp slt i32 %5, 6
  br i1 %6, label %7, label %15

7:                                                ; preds = %4
  %8 = load i32, i32* %3, align 4
  %9 = sext i32 %8 to i64
  %10 = getelementptr inbounds [6 x i32], [6 x i32]* %2, i64 0, i64 %9
  %11 = call i32 (i8*, ...) @__isoc99_scanf(i8* getelementptr inbounds ([3 x i8], [3 x i8]* @.str, i64 0, i64 0), i32* %10)
  br label %12

12:                                               ; preds = %7
  %13 = load i32, i32* %3, align 4
  %14 = add nsw i32 %13, 1
  store i32 %14, i32* %3, align 4
  br label %4

15:                                               ; preds = %4
  store i32 0, i32* %3, align 4
  br label %16

16:                                               ; preds = %37, %15
  %17 = load i32, i32* %3, align 4
  %18 = icmp slt i32 %17, 6
  br i1 %18, label %19, label %40

19:                                               ; preds = %16
  br label %20

20:                                               ; preds = %27, %19
  %21 = load i32, i32* %3, align 4
  %22 = sext i32 %21 to i64
  %23 = getelementptr inbounds [6 x i32], [6 x i32]* %2, i64 0, i64 %22
  %24 = load i32, i32* %23, align 4
  %25 = srem i32 %24, 10
  %26 = icmp eq i32 %25, 0
  br i1 %26, label %27, label %36

27:                                               ; preds = %20
  %28 = load i32, i32* %3, align 4
  %29 = sext i32 %28 to i64
  %30 = getelementptr inbounds [6 x i32], [6 x i32]* %2, i64 0, i64 %29
  %31 = load i32, i32* %30, align 4
  %32 = sdiv i32 %31, 10
  %33 = load i32, i32* %3, align 4
  %34 = sext i32 %33 to i64
  %35 = getelementptr inbounds [6 x i32], [6 x i32]* %2, i64 0, i64 %34
  store i32 %32, i32* %35, align 4
  br label %20

36:                                               ; preds = %20
  br label %37

37:                                               ; preds = %36
  %38 = load i32, i32* %3, align 4
  %39 = add nsw i32 %38, 1
  store i32 %39, i32* %3, align 4
  br label %16

40:                                               ; preds = %16
  store i32 0, i32* %3, align 4
  br label %41

41:                                               ; preds = %51, %40
  %42 = load i32, i32* %3, align 4
  %43 = icmp slt i32 %42, 6
  br i1 %43, label %44, label %54

44:                                               ; preds = %41
  %45 = load i32, i32* %3, align 4
  %46 = sext i32 %45 to i64
  %47 = getelementptr inbounds [6 x i32], [6 x i32]* %2, i64 0, i64 %46
  %48 = load i32, i32* %47, align 4
  %49 = call i32 @reverse(i32 %48)
  %50 = call i32 (i8*, ...) @printf(i8* getelementptr inbounds ([4 x i8], [4 x i8]* @.str.1, i64 0, i64 0), i32 %49)
  br label %51

51:                                               ; preds = %44
  %52 = load i32, i32* %3, align 4
  %53 = add nsw i32 %52, 1
  store i32 %53, i32* %3, align 4
  br label %41

54:                                               ; preds = %41
  %55 = load i32, i32* %1, align 4
  ret i32 %55
}

declare dso_local i32 @__isoc99_scanf(i8*, ...) #1

declare dso_local i32 @printf(i8*, ...) #1

; Function Attrs: noinline nounwind uwtable
define dso_local i32 @reverse(i32 %0) #0 {
  %2 = alloca i32, align 4
  %3 = alloca i32, align 4
  %4 = alloca i32, align 4
  store i32 %0, i32* %2, align 4
  store i32 0, i32* %3, align 4
  br label %5

5:                                                ; preds = %9, %1
  %6 = load i32, i32* %2, align 4
  %7 = call i32 @abs(i32 %6) #3
  %8 = icmp sgt i32 %7, 0
  br i1 %8, label %9, label %18

9:                                                ; preds = %5
  %10 = load i32, i32* %2, align 4
  %11 = srem i32 %10, 10
  store i32 %11, i32* %4, align 4
  %12 = load i32, i32* %3, align 4
  %13 = mul nsw i32 %12, 10
  %14 = load i32, i32* %4, align 4
  %15 = add nsw i32 %13, %14
  store i32 %15, i32* %3, align 4
  %16 = load i32, i32* %2, align 4
  %17 = sdiv i32 %16, 10
  store i32 %17, i32* %2, align 4
  br label %5

18:                                               ; preds = %5
  %19 = load i32, i32* %3, align 4
  ret i32 %19
}

; Function Attrs: nounwind readnone
declare dso_local i32 @abs(i32) #2


!llvm.module.flags = !{!0}
!llvm.ident = !{!1}

!0 = !{i32 1, !"wchar_size", i32 4}
!1 = !{!"clang version 10.0.0-4ubuntu1 "}
